#include <math.h>
#include <stdio.h>
#include <stdlib.h>
#include <string.h>

int main(){
int k,sz[100][100],m,n,p,i,j,s[100]={0};
scanf("%d",&k);
for(p=0;p<k;p++){
    scanf("%d %d",&m,&n);
    for(i=0;i<m;i++){
        for(j=0;j<n;j++){
            scanf("%d",&(sz[i][j]));
        }
    }
    if(m==1&&n==1){
        s[p]=sz[0][0];
    }
    else{
    for(j=0;j<n;j++){
        s[p]=s[p]+sz[0][j]+sz[m-1][j];
    }
    for(i=0;i<m;i++){
        s[p]=s[p]+sz[i][0]+sz[i][n-1];
    }
    s[p]=s[p]-sz[0][0]-sz[0][n-1]-sz[m-1][0]-sz[m-1][n-1];
}
}
for(p=0;p<k;p++){
    printf("%d\n",s[p]);
}
return 0;
}

